target datalayout = "e-m:e-p270:32:32-p271:32:32-p272:64:64-i64:64-i128:128-f80:128-n8:16:32:64-S128"
target triple = "x86_64-unknown-linux-gnu"

%"class.facebook::velox::row::CompactRow" = type { i8, %"class.facebook::velox::DecodedVector", i8, %"class.std::vector.5", %"class.std::vector.10", i8, i64, i64 }
%"class.facebook::velox::DecodedVector" = type { i32, ptr, ptr, ptr, %"class.std::optional", ptr, i8, i8, i8, i8, i8, i32, %"class.std::vector", %"class.std::vector.0" }
%"class.std::optional" = type { %"struct.std::_Optional_base" }
%"struct.std::_Optional_base" = type { %"struct.std::_Optional_payload" }
%"struct.std::_Optional_payload" = type { %"struct.std::_Optional_payload_base.base", [7 x i8] }
%"struct.std::_Optional_payload_base.base" = type <{ %"union.std::_Optional_payload_base<const unsigned long *>::_Storage", i8 }>
%"union.std::_Optional_payload_base<const unsigned long *>::_Storage" = type { ptr }
%"class.std::vector" = type { %"struct.std::_Vector_base" }
%"struct.std::_Vector_base" = type { %"struct.std::_Vector_base<int, std::allocator<int>>::_Vector_impl" }
%"struct.std::_Vector_base<int, std::allocator<int>>::_Vector_impl" = type { %"struct.std::_Vector_base<int, std::allocator<int>>::_Vector_impl_data" }
%"struct.std::_Vector_base<int, std::allocator<int>>::_Vector_impl_data" = type { ptr, ptr, ptr }
%"class.std::vector.0" = type { %"struct.std::_Vector_base.1" }
%"struct.std::_Vector_base.1" = type { %"struct.std::_Vector_base<unsigned long, std::allocator<unsigned long>>::_Vector_impl" }
%"struct.std::_Vector_base<unsigned long, std::allocator<unsigned long>>::_Vector_impl" = type { %"struct.std::_Vector_base<unsigned long, std::allocator<unsigned long>>::_Vector_impl_data" }
%"struct.std::_Vector_base<unsigned long, std::allocator<unsigned long>>::_Vector_impl_data" = type { ptr, ptr, ptr }
%"class.std::vector.5" = type { %"struct.std::_Vector_base.6" }
%"struct.std::_Vector_base.6" = type { %"struct.std::_Vector_base<facebook::velox::row::CompactRow, std::allocator<facebook::velox::row::CompactRow>>::_Vector_impl" }
%"struct.std::_Vector_base<facebook::velox::row::CompactRow, std::allocator<facebook::velox::row::CompactRow>>::_Vector_impl" = type { %"struct.std::_Vector_base<facebook::velox::row::CompactRow, std::allocator<facebook::velox::row::CompactRow>>::_Vector_impl_data" }
%"struct.std::_Vector_base<facebook::velox::row::CompactRow, std::allocator<facebook::velox::row::CompactRow>>::_Vector_impl_data" = type { ptr, ptr, ptr }
%"class.std::vector.10" = type { %"struct.std::_Bvector_base" }
%"struct.std::_Bvector_base" = type { %"struct.std::_Bvector_base<std::allocator<bool>>::_Bvector_impl" }
%"struct.std::_Bvector_base<std::allocator<bool>>::_Bvector_impl" = type { %"struct.std::_Bvector_base<std::allocator<bool>>::_Bvector_impl_data" }
%"struct.std::_Bvector_base<std::allocator<bool>>::_Bvector_impl_data" = type { %"struct.std::_Bit_iterator", %"struct.std::_Bit_iterator", ptr }
%"struct.std::_Bit_iterator" = type { %"struct.std::_Bit_iterator_base.base", [4 x i8] }
%"struct.std::_Bit_iterator_base.base" = type <{ ptr, i32 }>

; Function Attrs: mustprogress nounwind uwtable
define linkonce_odr noundef i32 @_ZNK8facebook5velox13DecodedVector5indexEi(ptr noundef nonnull align 8 dereferenceable(120) %this, i32 noundef %idx) #1 comdat align 2 {
entry:
  %retval = alloca i32, align 4
  %this.addr = alloca ptr, align 8
  %idx.addr = alloca i32, align 4
  store ptr %this, ptr %this.addr, align 8
  store i32 %idx, ptr %idx.addr, align 4
  %this1 = load ptr, ptr %this.addr, align 8
  %isIdentityMapping_ = getelementptr inbounds %"class.facebook::velox::DecodedVector", ptr %this1, i32 0, i32 8
  %0 = load i8, ptr %isIdentityMapping_, align 2
  %tobool = trunc i8 %0 to i1
  br i1 %tobool, label %if.then, label %if.end

if.then:                                          ; preds = %entry
  %1 = load i32, ptr %idx.addr, align 4
  store i32 %1, ptr %retval, align 4
  br label %return

if.end:                                           ; preds = %entry
  %isConstantMapping_ = getelementptr inbounds %"class.facebook::velox::DecodedVector", ptr %this1, i32 0, i32 9
  %2 = load i8, ptr %isConstantMapping_, align 1
  %tobool2 = trunc i8 %2 to i1
  br i1 %tobool2, label %if.then3, label %if.end4

if.then3:                                         ; preds = %if.end
  %constantIndex_ = getelementptr inbounds %"class.facebook::velox::DecodedVector", ptr %this1, i32 0, i32 11
  %3 = load i32, ptr %constantIndex_, align 8
  store i32 %3, ptr %retval, align 4
  br label %return

if.end4:                                          ; preds = %if.end
  %indices_ = getelementptr inbounds %"class.facebook::velox::DecodedVector", ptr %this1, i32 0, i32 1
  %4 = load ptr, ptr %indices_, align 8
  %5 = load i32, ptr %idx.addr, align 4
  %idxprom = sext i32 %5 to i64
  %arrayidx = getelementptr inbounds i32, ptr %4, i64 %idxprom
  %6 = load i32, ptr %arrayidx, align 4
  store i32 %6, ptr %retval, align 4
  br label %return

return:                                           ; preds = %if.end4, %if.then3, %if.then
  %7 = load i32, ptr %retval, align 4
  ret i32 %7
}

; Function Attrs: mustprogress nounwind uwtable
define linkonce_odr noundef ptr @_ZNK8facebook5velox13DecodedVector4dataIcEEPKT_v(ptr noundef nonnull align 8 dereferenceable(120) %this) #1 comdat align 2 {
entry:
  %this.addr = alloca ptr, align 8
  store ptr %this, ptr %this.addr, align 8
  %this1 = load ptr, ptr %this.addr, align 8
  %data_ = getelementptr inbounds %"class.facebook::velox::DecodedVector", ptr %this1, i32 0, i32 2
  %0 = load ptr, ptr %data_, align 8
  ret ptr %0
}

; Function Attrs: mustprogress uwtable
define void @_ZN8facebook5velox3row10CompactRow19serializeFixedWidthEiiPc(ptr noundef nonnull align 8 dereferenceable(224) %this, i32 noundef %offset, i32 noundef %size, ptr noundef %buffer) #0 align 2 {
entry:
  %this.addr = alloca ptr, align 8
  %offset.addr = alloca i32, align 4
  %size.addr = alloca i32, align 4
  %buffer.addr = alloca ptr, align 8
  store ptr %this, ptr %this.addr, align 8
  store i32 %offset, ptr %offset.addr, align 4
  store i32 %size, ptr %size.addr, align 4
  store ptr %buffer, ptr %buffer.addr, align 8
  %this1 = load ptr, ptr %this.addr, align 8
  %decoded_ = getelementptr inbounds %"class.facebook::velox::row::CompactRow", ptr %this1, i32 0, i32 1
  %call = call noundef ptr @_ZNK8facebook5velox13DecodedVector4dataIcEEPKT_v(ptr noundef nonnull align 8 dereferenceable(120) %decoded_)
  %tobool = icmp ne ptr %call, null
  br i1 %tobool, label %if.then, label %if.end

if.then:                                          ; preds = %entry
  %0 = load ptr, ptr %buffer.addr, align 8
  %decoded_2 = getelementptr inbounds %"class.facebook::velox::row::CompactRow", ptr %this1, i32 0, i32 1
  %call3 = call noundef ptr @_ZNK8facebook5velox13DecodedVector4dataIcEEPKT_v(ptr noundef nonnull align 8 dereferenceable(120) %decoded_2)
  %decoded_4 = getelementptr inbounds %"class.facebook::velox::row::CompactRow", ptr %this1, i32 0, i32 1
  %1 = load i32, ptr %offset.addr, align 4
  %call5 = call noundef i32 @_ZNK8facebook5velox13DecodedVector5indexEi(ptr noundef nonnull align 8 dereferenceable(120) %decoded_4, i32 noundef %1)
  %conv = sext i32 %call5 to i64
  %valueBytes_ = getelementptr inbounds %"class.facebook::velox::row::CompactRow", ptr %this1, i32 0, i32 7
  %2 = load i64, ptr %valueBytes_, align 8
  %mul = mul i64 %conv, %2
  %add.ptr = getelementptr inbounds i8, ptr %call3, i64 %mul
  %valueBytes_6 = getelementptr inbounds %"class.facebook::velox::row::CompactRow", ptr %this1, i32 0, i32 7
  %3 = load i64, ptr %valueBytes_6, align 8
  %4 = load i32, ptr %size.addr, align 4
  %conv7 = sext i32 %4 to i64
  %mul8 = mul i64 %3, %conv7
  call void @llvm.memcpy.p0.p0.i64(ptr align 1 %0, ptr align 1 %add.ptr, i64 %mul8, i1 false)
  br label %if.end

if.end:                                           ; preds = %if.then, %entry
  ret void
}