; Function Attrs: mustprogress nofree norecurse nosync nounwind willreturn memory(readwrite, inaccessiblemem: none) uwtable
define void @_ZN8facebook5velox3row10CompactRow19serializeFixedWidthEiiPc(ptr nocapture noundef nonnull readonly align 8 dereferenceable(224) %this, i32 noundef %offset, i32 noundef %size, ptr nocapture noundef writeonly %buffer) local_unnamed_addr #6 align 2 {
entry:
  %data_.i = getelementptr inbounds i8, ptr %this, i64 24
  %0 = load ptr, ptr %data_.i, align 8
  %tobool.not = icmp eq ptr %0, null
  br i1 %tobool.not, label %if.end, label %if.then

if.then:                                          ; preds = %entry
  %isIdentityMapping_.i = getelementptr inbounds i8, ptr %this, i64 66
  %1 = load i8, ptr %isIdentityMapping_.i, align 2
  %2 = and i8 %1, 1
  %tobool.not.i = icmp eq i8 %2, 0
  br i1 %tobool.not.i, label %if.end.i, label %_ZNK8facebook5velox13DecodedVector5indexEi.exit

if.end.i:                                         ; preds = %if.then
  %isConstantMapping_.i = getelementptr inbounds i8, ptr %this, i64 67
  %3 = load i8, ptr %isConstantMapping_.i, align 1
  %4 = and i8 %3, 1
  %tobool2.not.i = icmp eq i8 %4, 0
  br i1 %tobool2.not.i, label %if.end4.i, label %if.then3.i

if.then3.i:                                       ; preds = %if.end.i
  %constantIndex_.i = getelementptr inbounds i8, ptr %this, i64 72
  %5 = load i32, ptr %constantIndex_.i, align 8
  br label %_ZNK8facebook5velox13DecodedVector5indexEi.exit

if.end4.i:                                        ; preds = %if.end.i
  %indices_.i = getelementptr inbounds i8, ptr %this, i64 16
  %6 = load ptr, ptr %indices_.i, align 8
  %idxprom.i = sext i32 %offset to i64
  %arrayidx.i = getelementptr inbounds i32, ptr %6, i64 %idxprom.i
  %7 = load i32, ptr %arrayidx.i, align 4
  br label %_ZNK8facebook5velox13DecodedVector5indexEi.exit

_ZNK8facebook5velox13DecodedVector5indexEi.exit:  ; preds = %if.then, %if.then3.i, %if.end4.i
  %retval.0.i = phi i32 [ %5, %if.then3.i ], [ %7, %if.end4.i ], [ %offset, %if.then ]
  %conv = sext i32 %retval.0.i to i64
  %valueBytes_ = getelementptr inbounds i8, ptr %this, i64 216
  %8 = load i64, ptr %valueBytes_, align 8
  %mul = mul i64 %8, %conv
  %add.ptr = getelementptr inbounds i8, ptr %0, i64 %mul
  %conv7 = sext i32 %size to i64
  %mul8 = mul i64 %8, %conv7
  tail call void @llvm.memcpy.p0.p0.i64(ptr align 1 %buffer, ptr nonnull align 1 %add.ptr, i64 %mul8, i1 false)
  br label %if.end

if.end:                                           ; preds = %_ZNK8facebook5velox13DecodedVector5indexEi.exit, %entry
  ret void
}